; Function Attrs: mustprogress uwtable
define void @_ZN6google8protobuf8internal14ArenaStringPtr12SetAllocatedEPNSt7__cxx1112basic_stringIcSt11char_traitsIcESaIcEEEPNS0_5ArenaE(ptr noundef nonnull align 8 captures(none) dereferenceable(8) %this, ptr noundef %value, ptr noundef %arena) local_unnamed_addr #3 align 2 {
entry:
  %0 = load ptr, ptr %this, align 8
  %1 = ptrtoint ptr %0 to i64
  %xor.i.i = xor i64 %1, 2
  %and.i.i = and i64 %xor.i.i, 3
  %tobool.not.i.i = icmp ne i64 %and.i.i, 0
  %isnull1.i = icmp eq ptr %0, inttoptr (i64 2 to ptr)
  %isnull.i = or i1 %isnull1.i, %tobool.not.i.i
  br i1 %isnull.i, label %_ZN6google8protobuf8internal14ArenaStringPtr7DestroyEv.exit, label %delete.notnull.i

delete.notnull.i:                                 ; preds = %entry
  %2 = inttoptr i64 %xor.i.i to ptr
  tail call void @_ZNSt7__cxx1112basic_stringIcSt11char_traitsIcESaIcEED1Ev(ptr noundef nonnull align 8 dereferenceable(32) %2) #10
  tail call void @_ZdlPv(ptr noundef nonnull %2) #12
  br label %_ZN6google8protobuf8internal14ArenaStringPtr7DestroyEv.exit

_ZN6google8protobuf8internal14ArenaStringPtr7DestroyEv.exit: ; preds = %entry, %delete.notnull.i
  %cmp = icmp eq ptr %value, null
  br i1 %cmp, label %if.then, label %if.else

if.then:                                          ; preds = %_ZN6google8protobuf8internal14ArenaStringPtr7DestroyEv.exit
  store i64 ptrtoint (ptr @_ZN6google8protobuf8internal26fixed_address_empty_stringB5cxx11E to i64), ptr %this, align 8
  br label %if.end

if.else:                                          ; preds = %_ZN6google8protobuf8internal14ArenaStringPtr7DestroyEv.exit
  %cmp.not.i = icmp eq ptr %arena, null
  %3 = ptrtoint ptr %value to i64
  br i1 %cmp.not.i, label %if.else.i, label %if.then.i.i

if.then.i.i:                                      ; preds = %if.else
  %or.i.i.i = or i64 %3, 3
  %4 = inttoptr i64 %or.i.i.i to ptr
  store ptr %4, ptr %this, align 8
  tail call void @_ZN6google8protobuf8internal15ThreadSafeArena10AddCleanupEPvPFvS3_E(ptr noundef nonnull align 8 dereferenceable(144) %arena, ptr noundef nonnull %value, ptr noundef nonnull @_ZN6google8protobuf8internal19arena_delete_objectINSt7__cxx1112basic_stringIcSt11char_traitsIcESaIcEEEEEvPv)
  br label %if.end

if.else.i:                                        ; preds = %if.else
  %or.i.i5.i = or i64 %3, 2
  %5 = inttoptr i64 %or.i.i5.i to ptr
  store ptr %5, ptr %this, align 8
  br label %if.end

if.end:                                           ; preds = %if.else.i, %if.then.i.i, %if.then
  ret void
}